target datalayout = "e-m:e-p270:32:32-p271:32:32-p272:64:64-i64:64-i128:128-f80:128-n8:16:32:64-S128"
target triple = "x86_64-pc-linux-gnu"

%struct.SDL_TrayEntry = type { ptr, ptr, i8, i32, ptr, ptr, ptr }

@gtk_widget_set_sensitive = internal global ptr null, align 8

; Function Attrs: nounwind uwtable
define hidden void @SDL_SetTrayEntryEnabled_REAL(ptr noundef %0, i1 noundef zeroext %1) #0 {
  %3 = alloca ptr, align 8
  %4 = alloca i8, align 1
  store ptr %0, ptr %3, align 8
  %5 = zext i1 %1 to i8
  store i8 %5, ptr %4, align 1
  %6 = load ptr, ptr %3, align 8
  %7 = icmp ne ptr %6, null
  br i1 %7, label %9, label %8

8:                                                ; preds = %2
  br label %17

9:                                                ; preds = %2
  %10 = load ptr, ptr @gtk_widget_set_sensitive, align 8
  %11 = load ptr, ptr %3, align 8
  %12 = getelementptr inbounds nuw %struct.SDL_TrayEntry, ptr %11, i32 0, i32 1
  %13 = load ptr, ptr %12, align 8
  %14 = load i8, ptr %4, align 1, !range !3, !noundef !4
  %15 = trunc i8 %14 to i1
  %16 = zext i1 %15 to i32
  call void %10(ptr noundef %13, i32 noundef %16)
  br label %17

17:                                               ; preds = %9, %8
  ret void
}