; Function Attrs: nounwind uwtable
define hidden void @SDL_SetTrayEntryEnabled_REAL(ptr noundef readonly captures(address_is_null) %0, i1 noundef zeroext %1) local_unnamed_addr #0 {
  %.not = icmp eq ptr %0, null
  br i1 %.not, label %8, label %3

3:                                                ; preds = %2
  %4 = load ptr, ptr @gtk_widget_set_sensitive, align 8
  %5 = getelementptr inbounds nuw i8, ptr %0, i64 8
  %6 = load ptr, ptr %5, align 8
  %7 = zext i1 %1 to i32
  tail call void %4(ptr noundef %6, i32 noundef %7) #10
  br label %8

8:                                                ; preds = %2, %3
  ret void
}